; Function Attrs: mustprogress uwtable
define noundef signext range(i8 0, 2) i8 @_ZNK6icu_778Calendar14inDaylightTimeER10UErrorCode(ptr noundef nonnull align 8 dereferenceable(192) %0, ptr noundef nonnull align 4 dereferenceable(4) %1) unnamed_addr #1 align 2 {
  %3 = load i32, ptr %1, align 4, !tbaa !13
  %4 = icmp slt i32 %3, 1
  br i1 %4, label %5, label %_ZN6icu_778Calendar8completeER10UErrorCode.exit.thread

5:                                                ; preds = %2
  %6 = getelementptr inbounds nuw i8, ptr %0, i64 144
  %7 = load ptr, ptr %6, align 8, !tbaa !41
  %8 = load ptr, ptr %7, align 8, !tbaa !15
  %9 = getelementptr inbounds nuw i8, ptr %8, i64 72
  %10 = load ptr, ptr %9, align 8
  %11 = tail call noundef signext i8 %10(ptr noundef nonnull align 8 dereferenceable(72) %7)
  %.not4 = icmp ne i8 %11, 0
  %12 = load i32, ptr %1, align 4
  %13 = icmp slt i32 %12, 1
  %or.cond = select i1 %.not4, i1 %13, i1 false
  br i1 %or.cond, label %14, label %_ZN6icu_778Calendar8completeER10UErrorCode.exit.thread

14:                                               ; preds = %5
  %15 = getelementptr inbounds nuw i8, ptr %0, i64 152
  %16 = load i8, ptr %15, align 8
  %17 = trunc i8 %16 to i1
  br i1 %17, label %_ZN6icu_778Calendar10updateTimeER10UErrorCode.exit._crit_edge.i, label %18

18:                                               ; preds = %14
  %19 = load ptr, ptr %0, align 8, !tbaa !15
  %20 = getelementptr inbounds nuw i8, ptr %19, i64 248
  %21 = load ptr, ptr %20, align 8
  tail call void %21(ptr noundef nonnull align 8 dereferenceable(192) %0, ptr noundef nonnull align 4 dereferenceable(4) %1)
  %22 = load i32, ptr %1, align 4, !tbaa !13
  %23 = icmp slt i32 %22, 1
  br i1 %23, label %_ZN6icu_778Calendar10updateTimeER10UErrorCode.exit.i, label %_ZN6icu_778Calendar8completeER10UErrorCode.exit.thread

_ZN6icu_778Calendar10updateTimeER10UErrorCode.exit.i: ; preds = %18
  %24 = load i8, ptr %15, align 8
  %25 = and i8 %24, 20
  %or.cond.not.i.i = icmp eq i8 %25, 4
  %.v.i.i = select i1 %or.cond.not.i.i, i8 -10, i8 -12
  %26 = and i8 %.v.i.i, %24
  %27 = or disjoint i8 %26, 1
  store i8 %27, ptr %15, align 8
  %.pre.i = load i32, ptr %1, align 4, !tbaa !13
  %28 = icmp slt i32 %.pre.i, 1
  br i1 %28, label %_ZN6icu_778Calendar10updateTimeER10UErrorCode.exit._crit_edge.i, label %_ZN6icu_778Calendar8completeER10UErrorCode.exit.thread

_ZN6icu_778Calendar10updateTimeER10UErrorCode.exit._crit_edge.i: ; preds = %_ZN6icu_778Calendar10updateTimeER10UErrorCode.exit.i, %14
  %29 = phi i8 [ %16, %14 ], [ %27, %_ZN6icu_778Calendar10updateTimeER10UErrorCode.exit.i ]
  %30 = and i8 %29, 2
  %.not7.i = icmp eq i8 %30, 0
  br i1 %.not7.i, label %31, label %_ZN6icu_778Calendar8completeER10UErrorCode.exit.thread6

31:                                               ; preds = %_ZN6icu_778Calendar10updateTimeER10UErrorCode.exit._crit_edge.i
  %32 = load ptr, ptr %0, align 8, !tbaa !15
  %33 = getelementptr inbounds nuw i8, ptr %32, i64 256
  %34 = load ptr, ptr %33, align 8
  tail call void %34(ptr noundef nonnull align 8 dereferenceable(192) %0, ptr noundef nonnull align 4 dereferenceable(4) %1)
  %35 = load i32, ptr %1, align 4, !tbaa !13
  %36 = icmp slt i32 %35, 1
  br i1 %36, label %_ZN6icu_778Calendar8completeER10UErrorCode.exit, label %_ZN6icu_778Calendar8completeER10UErrorCode.exit.thread

_ZN6icu_778Calendar8completeER10UErrorCode.exit:  ; preds = %31
  %37 = load i8, ptr %15, align 8
  %38 = or i8 %37, 6
  store i8 %38, ptr %15, align 8
  %.pre = load i32, ptr %1, align 4, !tbaa !13
  %39 = icmp sgt i32 %.pre, 0
  br i1 %39, label %_ZN6icu_778Calendar8completeER10UErrorCode.exit.thread, label %_ZN6icu_778Calendar8completeER10UErrorCode.exit.thread6

_ZN6icu_778Calendar8completeER10UErrorCode.exit.thread6: ; preds = %_ZN6icu_778Calendar10updateTimeER10UErrorCode.exit._crit_edge.i, %_ZN6icu_778Calendar8completeER10UErrorCode.exit
  %40 = getelementptr inbounds nuw i8, ptr %0, i64 72
  %41 = load i32, ptr %40, align 8, !tbaa !12
  %42 = icmp ne i32 %41, 0
  %43 = zext i1 %42 to i8
  br label %_ZN6icu_778Calendar8completeER10UErrorCode.exit.thread

_ZN6icu_778Calendar8completeER10UErrorCode.exit.thread: ; preds = %31, %_ZN6icu_778Calendar10updateTimeER10UErrorCode.exit.i, %18, %_ZN6icu_778Calendar8completeER10UErrorCode.exit.thread6, %_ZN6icu_778Calendar8completeER10UErrorCode.exit, %2, %5
  %.0 = phi i8 [ 0, %5 ], [ 0, %2 ], [ %43, %_ZN6icu_778Calendar8completeER10UErrorCode.exit.thread6 ], [ 0, %_ZN6icu_778Calendar8completeER10UErrorCode.exit ], [ 0, %18 ], [ 0, %_ZN6icu_778Calendar10updateTimeER10UErrorCode.exit.i ], [ 0, %31 ]
  ret i8 %.0
}